(dp0
S'predictive models'
p1
S'y'
p2
sS'h.264'
p3
S'n'
p4
sS'semantic'
p5
S'n'
p6
sS'human-computer interaction'
p7
g6
sS'similarity'
p8
g6
sS'autonomous robots'
p9
S''
p10
sS'roc'
p11
g2
sS'text categorization'
p12
g6
sS'inverse problem'
p13
g2
sS'sentiment analysis'
p14
g4
sS'entropy'
p15
g6
sS'emotion recognition'
p16
g4
sS'ga'
p17
g4
sS'statistical machine learning'
p18
S'y'
p19
sS'association rules'
p20
g2
sS'c5.0'
p21
g2
sS'prognostics'
p22
g4
sS'web 2.0'
p23
g4
sS'knowledge-based systems'
p24
g4
sS'case-based reasoning'
p25
g19
sS'preference learning'
p26
g10
sS'intelligent agents'
p27
g4
sS'semi-supervised learning'
p28
g19
sS'high-throughput screening'
p29
g4
sS'feature evaluation and selection'
p30
g2
sS'predictive model'
p31
g19
sS'neural nets'
p32
g2
sS'statistical analysi'
p33
g19
sS'maximum entropy'
p34
g2
sS'variable importance'
p35
g2
sS'fuzzy decision tree'
p36
g2
sS'affective computing'
p37
g6
sS'drug discovery'
p38
g6
sS'accelerometers'
p39
g4
sS'natural language'
p40
g4
sS'natural language processing (nlp)'
p41
g4
sS'protein secondary structure'
p42
g4
sS'event extraction'
p43
g4
sS'rheumatoid arthritis'
p44
g4
sS'quality assessment'
p45
g4
sS'medical diagnosis'
p46
g4
sS'evolutionary programming'
p47
g2
sS'prior knowledge'
p48
g2
sS'decision support systems'
p49
g2
sS'parameter tuning'
p50
g2
sS'probabilistic algorithms'
p51
g2
sS'rule extraction'
p52
g19
sS'heuristic search'
p53
g2
sS'adaptive'
p54
g4
sS'tagging'
p55
g4
sS'grid computing'
p56
g4
sS'object recognition'
p57
g6
sS'expert system'
p58
g6
sS'traffic classification'
p59
g6
sS'induction'
p60
g6
sS'manifold learning'
p61
g19
sS'mapreduce'
p62
g2
sS'database'
p63
g6
sS'optical flow'
p64
g4
sS'markov chains'
p65
g2
sS'radial basis function neural networks'
p66
g2
sS'unsupervised learning'
p67
g19
sS'multi-agent'
p68
g4
sS'classification and regression trees'
p69
g2
sS'ensemble methods'
p70
g2
sS'over-fitting'
p71
g2
sS'machine learning for signal processing'
p72
g6
sS'structure prediction'
p73
g2
sS'voting'
p74
g4
sS'approximation'
p75
g2
sS'morphology'
p76
g10
sS'concept learning'
p77
g19
sS'software cost estimation'
p78
g4
sS'design'
p79
g6
sS'learning from example'
p80
g19
sS'genetics-based machine learning'
p81
g2
sS'prosody'
p82
g4
sS'bagging'
p83
g19
sS'reverse engineering'
p84
g4
sS'density estimation'
p85
g2
sS'artificial immune system'
p86
g6
sS'robot control'
p87
g4
sS'emotions'
p88
g4
sS'decoding'
p89
g10
sS'optimization'
p90
g19
sS'amino acid composition'
p91
g4
sS'genetic algorithms (gas)'
p92
g2
sS'metadata'
p93
g4
sS'segmentation'
p94
g19
sS'selective sampling'
p95
g2
sS'distributed computing'
p96
g4
sS'fuzzy set'
p97
g19
sS'document classification'
p98
g6
sS'machine vision'
p99
g6
sS'stochastic processes'
p100
g2
sS'denoising'
p101
g2
sS'geostatistics'
p102
g4
sS'component'
p103
g6
sS'auc'
p104
g2
sS'adaptive learning'
p105
g2
sS'discriminant analysi'
p106
g19
sS'ridge regression'
p107
g2
sS'performance evaluation'
p108
g6
sS'hrm decentralization'
p109
g19
sS'radial basis function'
p110
g19
sS'probabilistic graphical models'
p111
g2
sS'gene selection'
p112
g4
sS'domain knowledge'
p113
g4
sS'robust statistics'
p114
g4
sS'k-nearest neighbor'
p115
g19
sS'benchmarking'
p116
g10
sS'cluster analysis'
p117
g2
sS'software fault prediction'
p118
g4
sS'rdf'
p119
g4
sS'web mining'
p120
g6
sS'ensemble method'
p121
g19
sS'knowledge based systems'
p122
g4
sS'personalized medicine'
p123
g4
sS'navigation'
p124
g4
sS'co-training'
p125
g19
sS'biometric'
p126
g6
sS'linear discriminant analysis (lda)'
p127
g2
sS'inference'
p128
g2
sS'classification'
p129
g19
sS'singular value decomposition'
p130
g2
sS'virtual screening'
p131
g6
sS'context-aware'
p132
g4
sS'bayesian classifiers'
p133
g2
sS'texture'
p134
g4
sS'classifier ensembles'
p135
g2
sS'perceptron'
p136
g2
sS'genetic fuzzy systems'
p137
g2
sS'experimentation'
p138
g6
sS'languages'
p139
g4
sS'sample complexity'
p140
g2
sS'unlabeled data'
p141
g2
sS'recursive neural networks'
p142
g2
sS'dna microarray'
p143
g4
sS'reservoir computing'
p144
g4
sS'crowdsourcing'
p145
g4
sS'ensemble of classifier'
p146
g19
sS'image understanding'
p147
g4
sS'music'
p148
g4
sS'formal concept analysis'
p149
g4
sS'evolutionary algorithm'
p150
g19
sS'classification algorithm'
p151
g19
sS'quality assurance'
p152
g4
sS'rule-based systems'
p153
g2
sS'intelligent systems'
p154
g4
sS'predictive accuracy'
p155
g2
sS'gaussian process regression'
p156
g2
sS'cheminformatics'
p157
g4
sS'learning algorithms'
p158
g2
sS'benchmark'
p159
g4
sS'svr'
p160
g10
sS'drug design'
p161
g6
sS'molecular descriptors'
p162
g4
sS'gaussian processes'
p163
g2
sS'catalytic site prediction'
p164
g6
sS'wireless communication'
p165
g4
sS'graph matching'
p166
g2
sS'naturalistic data'
p167
g6
sS'distributed data mining'
p168
g2
sS'biomedicine'
p169
g10
sS'mascot'
p170
g6
sS'relevance vector machine'
p171
g19
sS'face recognition'
p172
g6
sS'gaussian peak'
p173
g19
sS'large margin classification'
p174
g19
sS'corpus'
p175
g4
sS'xcs'
p176
g4
sS'stacked generalization'
p177
g4
sS'support vector regression (svr)'
p178
g2
sS'machine learning'
p179
g19
sS'pattern classification'
p180
g19
sS'classification rules'
p181
g2
sS'hidden markov models'
p182
g2
sS'associative classification'
p183
g2
sS'rough set theory'
p184
g19
sS'digital libraries'
p185
g4
sS'association rule'
p186
g19
sS'melanoma'
p187
g4
sS'machine learning algorithms'
p188
g2
sS'rehabilitation'
p189
g4
sS'knowledge-based system'
p190
g6
sS'control'
p191
g6
sS'speech recognition'
p192
g6
sS'steganography'
p193
g10
sS'parallel computing'
p194
g4
sS'molecular similarity'
p195
g4
sS'stacking'
p196
g2
sS'knowledge discovery in database'
p197
g6
sS'secondary structure prediction'
p198
g10
sS'methods: statistical'
p199
g2
sS'agent'
p200
g6
sS'bioinformatic'
p201
g6
sS'scheduling'
p202
g6
sS'semantic web'
p203
g6
sS'object detection'
p204
g6
sS'brain-computer interface (bci)'
p205
g4
sS'constructive induction'
p206
g2
sS'probabilistic reasoning'
p207
g10
sS'random forest'
p208
g19
sS'learning vector quantization'
p209
g2
sS'overfitting'
p210
g2
sS'aging'
p211
g4
sS'regularization'
p212
g19
sS'docking'
p213
g4
sS'semidefinite programming'
p214
g2
sS'distributed sensing'
p215
g10
sS'fuzzy reasoning'
p216
g2
sS'lazy learning'
p217
g2
sS'neural network'
p218
g19
sS'epistasis'
p219
g4
sS'computer vision'
p220
g6
sS'software metric'
p221
g6
sS'machine-learning'
p222
g19
sS'text classification'
p223
g6
sS'attribute selection'
p224
g4
sS'nearest neighbour'
p225
g2
sS'location proteomics'
p226
g4
sS'ensemble'
p227
g19
sS'statistical relational learning'
p228
g2
sS'transduction'
p229
g2
sS'classifier ensemble'
p230
g19
sS'electroencephalography (eeg)'
p231
g4
sS'computational biology'
p232
g6
sS'constraint satisfaction'
p233
g2
sS'fuzzy system'
p234
g19
sS'concept hierarchy'
p235
g4
sS'mapping'
p236
g10
sS'neuroimaging'
p237
g4
sS'naive bayes classifier'
p238
g19
sS'applications'
p239
g4
sS'preprocessing'
p240
g4
sS'snp'
p241
g4
sS'monitoring'
p242
g4
sS'computer aided diagnosis'
p243
g4
sS'annotation'
p244
g4
sS'machine learning methods'
p245
g2
sS'remote sensing'
p246
g6
sS'k-means'
p247
g2
sS'bootstrap'
p248
g2
sS'biomarker'
p249
g6
sS'e-commerce'
p250
g4
sS'complexity'
p251
g4
sS'correlation'
p252
g2
sS'relational learning'
p253
g2
sS'scene understanding'
p254
g4
sS'multiple kernel learning'
p255
g2
sS'wavelet transform'
p256
g2
sS'survival analysis'
p257
g2
sS'function approximation'
p258
g19
sS'network security'
p259
g6
sS'feedback'
p260
g4
sS'parameter estimation'
p261
g19
sS'hierarchy'
p262
g4
sS'taxonomy'
p263
g4
sS'epilepsy'
p264
g4
sS'data clustering'
p265
g19
sS'neuroevolution'
p266
g4
sS'feature'
p267
g4
sS'stability'
p268
g4
sS'quality control'
p269
g4
sS'sensor network'
p270
g6
sS'probabilistic inference'
p271
g2
sS'ontology learning'
p272
g4
sS'software reliability'
p273
g4
sS'radial basis functions'
p274
g2
sS'scoring'
p275
g2
sS'classifier combination'
p276
g2
sS'hierarchical classification'
p277
g2
sS'anomaly detection'
p278
g6
sS'compressed sensing'
p279
g4
sS'sensitivity'
p280
g2
sS'distance metric learning'
p281
g2
sS'imbalanced datasets'
p282
g4
sS'fuzzy modeling'
p283
g4
sS'missing data'
p284
g19
sS'proteomics'
p285
g4
sS'knowledge acquisition'
p286
g6
sS'pca'
p287
g19
sS'multi-class classification'
p288
g10
sS'radial basis function network'
p289
g2
sS'dna'
p290
g10
sS'speaker recognition'
p291
g4
sS'protein-protein interactions'
p292
g4
sS'indexing'
p293
g2
sS'machine learning method'
p294
g6
sS'gaussian proces'
p295
g19
sS'least squares support vector machine'
p296
g2
sS'pattern matching'
p297
g2
sS'spectral clustering'
p298
g2
sS'risk assessment'
p299
g4
sS'language acquisition'
p300
g4
sS'predictive modelling'
p301
g2
sS'cognition'
p302
g10
sS'context-awareness'
p303
g4
sS'data fusion'
p304
g19
sS'proteins'
p305
g4
sS'multiple instance learning'
p306
g2
sS'classifier systems'
p307
g2
sS'classification accuracy'
p308
g2
sS'qsar'
p309
g6
sS'logistic regression'
p310
g19
sS'predictive toxicology'
p311
g4
sS'random subspace'
p312
g2
sS'magnetic resonance imaging'
p313
g4
sS'incomplete data'
p314
g4
sS'opinion mining'
p315
g6
sS'classifier'
p316
g19
sS'in silico'
p317
g4
sS'ordinal regression'
p318
g2
sS'r'
p319
g2
sS'power systems'
p320
g4
sS'student modeling'
p321
g10
sS'catalogues'
p322
g4
sS'parallel processing'
p323
g4
sS'linear programming'
p324
g19
sS'decision support'
p325
g19
sS'multistrategy learning'
p326
g2
sS'hyperspectral imaging'
p327
g4
sS'artificial neural network (ann)'
p328
g2
sS'information extraction'
p329
g6
sS'c4.5'
p330
g19
sS'abstraction'
p331
g2
sS'measurement'
p332
g6
sS'structural risk minimization'
p333
g2
sS'user modeling'
p334
g6
sS'reduct'
p335
g4
sS'dimensionality reduction'
p336
g19
sS'nonlinear'
p337
g4
sS'adaptive systems'
p338
g2
sS'quality'
p339
g4
sS'gradient descent'
p340
g2
sS'fuzzy clustering'
p341
g19
sS'network management'
p342
g10
sS'social networks'
p343
g4
sS'internet'
p344
g4
sS'discrete hidden markov model (dhmm)'
p345
g2
sS'human-machine interaction'
p346
g4
sS'statistical modeling'
p347
g2
sS'evaluation'
p348
g6
sS'conditional random fields'
p349
g2
sS'ecg'
p350
g4
sS'model'
p351
g6
sS'perception'
p352
g4
sS'localization'
p353
g4
sS'concept drift'
p354
g19
sS'discriminant analysis'
p355
g2
sS'cart'
p356
g2
sS'mml'
p357
g4
sS'statistics'
p358
g2
sS'software testing'
p359
g4
sS'boosting'
p360
g19
sS'multivariate analysis'
p361
g2
sS'image annotation'
p362
g4
sS'time series prediction'
p363
g2
sS'decision table'
p364
g2
sS'posterior probability'
p365
g2
sS'training'
p366
g2
sS'classifier fusion'
p367
g2
sS'automatic image annotation'
p368
g4
sS'feature construction'
p369
g2
sS'learning algorithm'
p370
g19
sS'medical informatics'
p371
g4
sS'change detection'
p372
g4
sS'roc analysis'
p373
g2
sS'data analysi'
p374
g6
sS'educational data mining'
p375
g10
sS'wordnet'
p376
g4
sS'feature subset selection'
p377
g19
sS'feature weighting'
p378
g2
sS'structured data'
p379
g4
sS'multiple classifier systems'
p380
g2
sS'similarity measures'
p381
g2
sS'emotion'
p382
g6
sS'protein function'
p383
g4
sS'features'
p384
g2
sS'probability'
p385
g2
sS'cost-sensitive learning'
p386
g19
sS'texture analysi'
p387
g6
sS'support vector machines (support vector machines)'
p388
g19
sS'ontologies'
p389
g4
sS'local search'
p390
g2
sS'protein structure prediction'
p391
g6
sS'smoothing'
p392
g2
sS'image processing'
p393
g6
sS'dti'
p394
g4
sS'decision theory'
p395
g4
sS'fmri'
p396
g6
sS'clustering algorithms'
p397
g2
sS'surveys'
p398
g4
sS'management'
p399
g4
sS'weka'
p400
g6
sS'gaussian process'
p401
g2
sS'privacy'
p402
g4
sS'electronic nose'
p403
g4
sS'chemoinformatics'
p404
g4
sS'wrapper'
p405
g4
sS'mutation'
p406
g4
sS'airs'
p407
g4
sS'gaussian processe'
p408
g19
sS'condition monitoring'
p409
g4
sS'petri nets'
p410
g2
sS'expectation-maximization'
p411
g2
sS'image analysi'
p412
g6
sS"alzheimer's disease"
p413
g6
sS'comprehensibility'
p414
g4
sS'text mining'
p415
g6
sS'on-line learning'
p416
g2
sS'ant colony optimization'
p417
g4
sS'machine learning algorithm'
p418
g19
sS'decision tree induction'
p419
g2
sS'association rule mining'
p420
g2
sS'explanation'
p421
g2
sS'resource management'
p422
g4
sS'prediction'
p423
g19
sS'inductive logic programming'
p424
g19
sS'electroencephalography'
p425
g4
sS'regression'
p426
g19
sS'fuzzy'
p427
g4
sS'autonomic computing'
p428
g10
sS'classifiers'
p429
g2
sS'semantics'
p430
g4
sS'context awareness'
p431
g2
sS'software effort estimation'
p432
g4
sS'raman spectroscopy'
p433
g4
sS'secondary structure'
p434
g4
sS'wireless sensor network'
p435
g6
sS'mobile robots'
p436
g4
sS'speech processing'
p437
g10
sS'learning classifier system'
p438
g19
sS'knowledge discovery'
p439
g6
sS'reproducing kernel hilbert space'
p440
g19
sS'fluorescence microscopy'
p441
g4
sS'gps'
p442
g4
sS'game theory'
p443
g2
sS'rule induction'
p444
g19
sS'nlp'
p445
g4
sS'sparse representation'
p446
g2
sS'qspr'
p447
g4
sS'functional genomics'
p448
g4
sS'ann'
p449
g6
sS'reduction'
p450
g2
sS'generalization'
p451
g19
sS'artmap'
p452
g4
sS'robot learning'
p453
g4
sS'graphical models'
p454
g2
sS'machine translation'
p455
g4
sS'fuzzy control'
p456
g4
sS'genomic'
p457
g6
sS'pervasive computing'
p458
g10
sS'sar'
p459
g4
sS'question classification'
p460
g4
sS'knowledge base'
p461
g4
sS'screening'
p462
g4
sS'recurrent neural networks'
p463
g2
sS'markov models'
p464
g2
sS'decision rules'
p465
g2
sS'predictive modeling'
p466
g2
sS'learning systems'
p467
g2
sS'isomap'
p468
g4
sS'logic programming'
p469
g2
sS'complex systems'
p470
g4
sS'gaussian mixture models'
p471
g2
sS'gene expression programming'
p472
g10
sS'sentiment classification'
p473
g4
sS'analogy'
p474
g4
sS'natural language processing'
p475
g6
sS'performance'
p476
g6
sS'cancer classification'
p477
g4
sS'accuracy'
p478
g6
sS'image retrieval'
p479
g6
sS'motion capture'
p480
g4
sS'data classification'
p481
g2
sS'mining methods and algorithms'
p482
g10
sS'web search'
p483
g4
sS'generalization performance'
p484
g4
sS'complex networks'
p485
g4
sS'metrics'
p486
g4
sS'autonomous agents'
p487
g4
sS'representation'
p488
g4
sS'adaptive resonance theory'
p489
g4
sS'missing values'
p490
g2
sS'curse of dimensionality'
p491
g2
sS'music information retrieval'
p492
g4
sS'coronary artery disease'
p493
g4
sS'computational learning theory'
p494
g19
sS'software engineering'
p495
g4
sS'spam filtering'
p496
g4
sS'convex optimization'
p497
g19
sS'linear regression'
p498
g19
sS'adaboost'
p499
g19
sS'naive baye'
p500
g19
sS'diagnostics'
p501
g4
sS'information systems'
p502
g10
sS'statistical models'
p503
g4
sS'hybrid systems'
p504
g4
sS'heuristics'
p505
g4
sS'walking'
p506
g4
sS'human-robot interaction'
p507
g4
sS'nearest neighbor algorithm'
p508
g2
sS'anfis'
p509
g4
sS'fraud detection'
p510
g4
sS'social network'
p511
g6
sS'multispectral'
p512
g2
sS'cross-validation'
p513
g19
sS'planning'
p514
g6
sS'self organizing maps'
p515
g2
sS'part-of-speech tagging'
p516
g4
sS'functional magnetic resonance imaging'
p517
g10
sS'high-dimensional data'
p518
g2
sS'self-organizing map'
p519
g19
sS'ensembles'
p520
g2
sS'microarray data'
p521
g4
sS'gesture recognition'
p522
g4
sS'decision support system'
p523
g6
sS'q-learning'
p524
g4
sS'supervised classification'
p525
g19
sS'support vector machines (support vector machine)'
p526
g19
sS'autonomous navigation'
p527
g4
sS'energy efficiency'
p528
g10
sS'word segmentation'
p529
g4
sS'immune network'
p530
g4
sS'mobile robotics'
p531
g4
sS'wavelet'
p532
g19
sS'semantic annotation'
p533
g10
sS'ranking'
p534
g19
sS'k-means clustering'
p535
g19
sS'graph theory'
p536
g2
sS'peptide'
p537
g10
sS'gene expression data'
p538
g4
sS'recommender systems'
p539
g4
sS'subcellular localization'
p540
g4
sS'time serie'
p541
g19
sS'inductive learning'
p542
g19
sS'systems biology'
p543
g6
sS'traffic identification'
p544
g4
sS'multiagent systems'
p545
g4
sS'credit risk'
p546
g4
sS'transfer learning'
p547
g19
sS'computational intelligence'
p548
g6
sS'evolution'
p549
g4
sS'data processing'
p550
g10
sS'web usage mining'
p551
g4
sS'collaborative filtering'
p552
g19
sS'variable selection'
p553
g19
sS'system identification'
p554
g6
sS'microscopy'
p555
g4
sS'mammography'
p556
g4
sS'sequence analysis'
p557
g4
sS'crf'
p558
g4
sS'architecture'
p559
g4
sS'multi-task learning'
p560
g2
sS'question answering'
p561
g6
sS'intelligent agent'
p562
g6
sS'vision'
p563
g4
sS'classification algorithms'
p564
g2
sS'kernel'
p565
g19
sS'cooperation'
p566
g4
sS'climate change'
p567
g4
sS'mobile robot'
p568
g6
sS'meta-learning'
p569
g19
sS'spectral analysis'
p570
g2
sS'detection'
p571
g4
sS'schizophrenia'
p572
g6
sS'imputation'
p573
g2
sS'intelligent data analysis'
p574
g4
sS'image classification'
p575
g6
sS'linear discriminant analysi'
p576
g19
sS'evolutionary computing'
p577
g2
sS'malware detection'
p578
g4
sS'colorectal cancer'
p579
g4
sS'support vector regression'
p580
g19
sS'structural health monitoring'
p581
g4
sS'machine learning (ml)'
p582
g2
sS'protein secondary structure prediction'
p583
g4
sS'review'
p584
g4
sS'hybrid'
p585
g4
sS'wikipedia'
p586
g4
sS'protein folding'
p587
g4
sS'forecast'
p588
g2
sS'structural genomics'
p589
g4
sS'classification tree'
p590
g19
sS'identification'
p591
g6
sS'machine learning classifiers'
p592
g2
sS'blind signal separation'
p593
g2
sS'adme'
p594
g4
sS'computer-aided diagnosi'
p595
g6
sS'clustering algorithm'
p596
g2
sS'computed tomography'
p597
g4
sS'artificial neural network'
p598
g19
sS'content-based image retrieval'
p599
g6
sS'simulated annealing'
p600
g2
sS'intrusion detection system'
p601
g6
sS'heuristic'
p602
g6
sS'social network analysis'
p603
g2
sS'combinatorial optimization'
p604
g2
sS'power transformer'
p605
g10
sS'chemometrics'
p606
g4
sS'scalability'
p607
g2
sS'rule generation'
p608
g2
sS'gene expression analysis'
p609
g4
sS'modeling'
p610
g6
sS'e-learning'
p611
g4
sS'software defect prediction'
p612
g4
sS'markov decision process'
p613
g2
sS'multidimensional scaling'
p614
g2
sS'document clustering'
p615
g4
sS'gene networks'
p616
g10
sS'image registration'
p617
g4
sS'data visualization'
p618
g2
sS'network intrusion detection'
p619
g4
sS'phishing'
p620
g4
sS'sensitivity analysi'
p621
g19
sS'differential evolution'
p622
g2
sS'uncertainty'
p623
g19
sS'time series'
p624
g2
sS'maxent'
p625
g2
sS'knowledge discovery and data mining'
p626
g4
sS'intelligent control'
p627
g4
sS'granular computing'
p628
g6
sS'one-class classification'
p629
g2
sS'context'
p630
g6
sS'logic'
p631
g4
sS'estimation'
p632
g2
sS'optimal control'
p633
g4
sS'information gain'
p634
g19
sS'methods : data analysis'
p635
g4
sS'forecasting'
p636
g6
sS'filtering'
p637
g4
sS'image segmentation'
p638
g6
sS'cancer'
p639
g6
sS'mathematical morphology'
p640
g4
sS'protein stability'
p641
g10
sS'information granules'
p642
g4
sS'reinforcement learning'
p643
g19
sS'regression tree'
p644
g19
sS'kernel method'
p645
g19
sS'minimum description length'
p646
g2
sS'neuro-fuzzy systems'
p647
g2
sS'agents'
p648
g4
sS'adaptation'
p649
g4
sS'learning'
p650
g19
sS'data mining'
p651
g19
sS'semantic gap'
p652
g4
sS'medical diagnosi'
p653
g6
sS'fuzzy sets'
p654
g2
sS'ambient intelligence'
p655
g4
sS'pac learning'
p656
g2
sS'protein structure'
p657
g6
sS'java'
p658
g4
sS'rough set'
p659
g19
sS'accelerometer'
p660
g4
sS'discrimination'
p661
g2
sS'robocup'
p662
g4
sS'information fusion'
p663
g4
sS'decision tree learning'
p664
g2
sS'novelty detection'
p665
g2
sS'abductive networks'
p666
g2
sS'pattern discovery'
p667
g2
sS'statistical learning'
p668
g19
sS'mutual information'
p669
g19
sS'diversity'
p670
g6
sS'attribute reduction'
p671
g6
sS'mobile computing'
p672
g4
sS'search'
p673
g4
sS'modelling'
p674
g2
sS'statistical learning theory'
p675
g2
sS'hmm'
p676
g2
sS'bayesian'
p677
g2
sS'gait analysis'
p678
g4
sS'dimension reduction'
p679
g19
sS'fuzzy logic'
p680
g19
sS'fuzzy c-means'
p681
g2
sS'bayesian network'
p682
g19
sS'activity recognition'
p683
g6
sS'feature ranking'
p684
g2
sS'expectation maximization'
p685
g2
sS'mlp'
p686
g4
sS'unsupervised machine learning'
p687
g2
sS'roc curve'
p688
g19
sS'rbf'
p689
g4
sS'named entity recognition'
p690
g19
sS'fuzzy classification'
p691
g2
sS'reproducing kernel hilbert spaces'
p692
g2
sS'markov blanket'
p693
g2
sS'intelligent system'
p694
g6
sS'microarrays'
p695
g4
sS'speech'
p696
g4
sS'data reduction'
p697
g19
sS'metadata extraction'
p698
g4
sS'relevance feedback'
p699
g6
sS'cellular automata'
p700
g10
sS'supervised machine learning'
p701
g19
sS'bias'
p702
g2
sS'multivariate statistics'
p703
g2
sS'principal component analysis (pca)'
p704
g2
sS'protein'
p705
g6
sS'steganalysis'
p706
g4
sS'recurrent neural network'
p707
g19
sS'pruning'
p708
g19
sS'pso'
p709
g4
sS'conformal prediction'
p710
g2
sS'education'
p711
g4
sS'class imbalance'
p712
g19
sS'machine learning technique'
p713
g19
sS'microarray'
p714
g6
sS'randomization'
p715
g2
sS'principal component analysi'
p716
g19
sS'hierarchical clustering'
p717
g2
sS'survey'
p718
g6
sS'rna'
p719
g10
sS'web page classification'
p720
g4
sS'human computer interaction'
p721
g4
sS'genetic programming'
p722
g19
sS'conditional random field'
p723
g19
sS'active learning'
p724
g19
sS'cross validation'
p725
g2
sS'support vector machine (support vector machine)'
p726
g19
sS'decision-making'
p727
g4
sS'hybrid system'
p728
g6
sS'automation'
p729
g4
sS'artificial immune systems'
p730
g2
sS'prognosi'
p731
g6
sS'hidden markov model'
p732
g19
sS'grammatical inference'
p733
g4
sS'robotic'
p734
g6
sS'ubiquitous computing'
p735
g4
sS'bayesian inference'
p736
g2
sS'model selection'
p737
g6
sS'intelligent tutoring systems'
p738
g4
sS'knn'
p739
g2
sS'tracking'
p740
g6
sS'pattern recognition'
p741
g19
sS'nonparametric regression'
p742
g2
sS'computational molecular biology'
p743
g4
sS'bootstrapping'
p744
g2
sS'gmdh'
p745
g4
sS'kernel density estimation'
p746
g2
sS'information theory'
p747
g19
sS'image analysis'
p748
g4
sS'global optimization'
p749
g2
sS'patterns'
p750
g2
sS'backpropagation'
p751
g2
sS'bayesian classifier'
p752
g19
sS'scoring function'
p753
g2
sS'consistency'
p754
g4
sS'probabilistic neural network'
p755
g2
sS'cluster analysi'
p756
g19
sS'cognitive modeling'
p757
g10
sS'tabu search'
p758
g4
sS'extension matrix'
p759
g4
sS'user modelling'
p760
g4
sS'machine learning theory'
p761
g2
sS'lda'
p762
g2
sS'gene ontology'
p763
g4
sS'adaptive signal processing'
p764
g4
sS'electroencephalogram (eeg)'
p765
g4
sS'multiclass classification'
p766
g19
sS'feature reduction'
p767
g2
sS'boolean functions'
p768
g4
sS'ocr'
p769
g4
sS'learning theory'
p770
g19
sS'graph laplacian'
p771
g2
sS'biomarker discovery'
p772
g4
sS'multi-instance learning'
p773
g2
sS'alignment'
p774
g4
sS'lasso'
p775
g19
sS'statistical methods'
p776
g2
sS'visualization'
p777
g19
sS'loss function'
p778
g2
sS'time series analysis'
p779
g2
sS'information filtering'
p780
g2
sS'mobility'
p781
g4
sS'biology and genetics'
p782
g4
sS'genre classification'
p783
g4
sS'load forecasting'
p784
g4
sS'evolutionary computation'
p785
g19
sS'knowledge extraction'
p786
g4
sS'noisy data'
p787
g2
sS'relevance'
p788
g4
sS'automatic classification'
p789
g2
sS'mixture models'
p790
g2
sS'ensemble learning'
p791
g19
sS'ensembles of classifiers'
p792
g2
sS'signal processing'
p793
g6
sS'microrna'
p794
g4
sS'missing value'
p795
g19
sS'learning to rank'
p796
g19
sS'rules'
p797
g10
sS'independent component analysi'
p798
g19
sS'kernel function'
p799
g19
sS'event detection'
p800
g4
sS'cognitive radio'
p801
g6
sS'experimental design'
p802
g4
sS'fusion'
p803
g4
sS'information visualization'
p804
g4
sS'breast cancer diagnosis'
p805
g4
sS'sampling'
p806
g19
sS'dynamic time warping'
p807
g2
sS'fall detection'
p808
g4
sS'computational complexity'
p809
g19
sS'support vector machine'
p810
g19
sS'gaussian mixture model'
p811
g2
sS'data compression'
p812
g2
sS'similarity measure'
p813
g19
sS'kernel functions'
p814
g2
sS'algorithm selection'
p815
g2
sS'small data set'
p816
g2
sS'adaptive control'
p817
g2
sS'sparsity'
p818
g19
sS'concept lattice'
p819
g4
sS'statistical inference'
p820
g2
sS'eeg'
p821
g6
sS'shape analysis'
p822
g10
sS'concept formation'
p823
g10
sS'ensemble classifiers'
p824
g2
sS'hyperspectral'
p825
g4
sS'locally linear embedding'
p826
g2
sS'medical decision making'
p827
g10
sS'estimation of distribution algorithm'
p828
g4
sS'information retrieval'
p829
g6
sS'electroencephalogram'
p830
g4
sS'fault prediction'
p831
g10
sS'mass spectrometry'
p832
g6
sS'statistic'
p833
g6
sS'k-mean'
p834
g19
sS'graphical model'
p835
g19
sS'software quality'
p836
g4
sS'extreme learning machine'
p837
g2
sS'recognition'
p838
g2
sS'intrusion detection'
p839
g6
sS'particle swarm optimization'
p840
g19
sS'negative correlation learning'
p841
g2
sS'bayesian belief networks'
p842
g2
sS'id3'
p843
g4
sS'protein classification'
p844
g4
sS'k-nearest neighbors'
p845
g2
sS'mixture of experts'
p846
g2
sS'web services'
p847
g4
sS'metabolomics'
p848
g4
sS'gene expression'
p849
g6
sS'knowledge engineering'
p850
g4
sS'sentiment analysi'
p851
g6
sS'noise'
p852
g4
sS'bayesian methods'
p853
g2
sS'social media'
p854
g4
sS'marketing'
p855
g10
sS'pharmacophore'
p856
g4
sS'ensemble classifier'
p857
g19
sS'schema matching'
p858
g10
sS'self-organization'
p859
g2
sS'online learning'
p860
g19
sS'neural net'
p861
g19
sS'fault diagnosi'
p862
g6
sS'em algorithm'
p863
g2
sS'mimo system'
p864
g19
sS'ontology'
p865
g6
sS'security'
p866
g6
sS'vaccine'
p867
g19
sS'defect prediction'
p868
g4
sS'comparison'
p869
g4
sS'pipeline'
p870
g19
sS'species distribution models'
p871
g4
sS'roc curves'
p872
g2
sS'glaucoma'
p873
g4
sS'wavelets'
p874
g2
sS'simulation'
p875
g6
sS'facial expression recognition'
p876
g4
sS'information system'
p877
g6
sS'ensemble classification'
p878
g2
sS'feature selection'
p879
g19
sS'clustering analysis'
p880
g2
sS'graph embedding'
p881
g4
sS'software'
p882
g4
sS'kernel learning'
p883
g2
sS'discretization'
p884
g19
sS'instance-based learning'
p885
g19
sS'generalization error'
p886
g2
sS'rule learning'
p887
g2
sS'som'
p888
g2
sS'structure learning'
p889
g2
sS'computer simulation'
p890
g4
sS'k-means algorithm'
p891
g2
sS'partial least squares'
p892
g2
sS'maximum likelihood'
p893
g2
sS'multi-objective optimization'
p894
g2
sS'error bounds'
p895
g2
sS'decision-tree induction'
p896
g2
sS'clustering'
p897
g19
sS'speech synthesis'
p898
g10
sS'categorization'
p899
g19
sS'pattern analysis'
p900
g2
sS'markov chain monte carlo'
p901
g2
sS'mixture model'
p902
g19
sS'dynamic bayesian networks'
p903
g2
sS'qualitative reasoning'
p904
g4
sS'genetic algorithm (ga)'
p905
g2
sS'lidar'
p906
g10
sS'mild cognitive impairment'
p907
g4
sS'learning classifier systems'
p908
g2
sS'methods: data analysi'
p909
g6
sS'knowledge management'
p910
g6
sS'species distribution model'
p911
g4
sS'data streams'
p912
g4
sS'breast cancer'
p913
g6
sS'knowledge'
p914
g4
sS'artificial intelligence'
p915
g19
sS'binary classification'
p916
g19
sS'bankruptcy prediction'
p917
g4
sS'feature extraction'
p918
g19
sS'multi-agent system'
p919
g19
sS'fpga'
p920
g4
sS'inductive inference'
p921
g19
sS'quantitative structure-activity relationships'
p922
g4
sS'conceptual clustering'
p923
g2
sS'semantic similarity'
p924
g4
sS'land cover'
p925
g4
sS'compressive sensing'
p926
g4
sS'knowledge representation'
p927
g6
sS'statistical pattern recognition'
p928
g2
sS'computer security'
p929
g6
sS'techniques: photometric'
p930
g10
sS'explanation-based learning'
p931
g4
sS'decision making'
p932
g6
sS'dynamic programming'
p933
g2
sS'multilayer perceptron'
p934
g2
sS'outlier detection'
p935
g2
sS'human factors'
p936
g4
sS'protein-protein interaction'
p937
g6
sS'protein function prediction'
p938
g4
sS'credit scoring'
p939
g6
sS'string kernels'
p940
g4
sS'data preprocessing'
p941
g19
sS'verification'
p942
g10
sS'spectroscopy'
p943
g10
sS'robot'
p944
g4
sS'optimisation'
p945
g2
sS'blogs'
p946
g4
sS'word sense disambiguation'
p947
g6
sS'prostate cancer'
p948
g4
sS'classifier design and evaluation'
p949
g2
sS'decision tree'
p950
g19
sS'regression analysis'
p951
g2
sS'personalization'
p952
g6
sS'diagnosi'
p953
g6
sS'rvm'
p954
g4
sS'cbr'
p955
g4
sS'independent component analysis'
p956
g2
sS'fault detection'
p957
g6
sS'membership function'
p958
g4
sS'physicochemical properties'
p959
g4
sS'inductive machine learning'
p960
g19
sS'scientific discovery'
p961
g4
sS'symbolic regression'
p962
g2
sS'visual analytics'
p963
g4
sS'quantitative structure-activity relationship'
p964
g4
sS'kernel principal component analysis'
p965
g2
sS'brain-computer interface'
p966
g6
sS'cytochrome p450'
p967
g4
sS'semisupervised learning'
p968
g2
sS'nearest neighbor'
p969
g19
sS'transductive learning'
p970
g2
sS'computer-aided diagnosis'
p971
g4
sS'calibration'
p972
g10
sS'gene regulatory networks'
p973
g4
sS'linear discriminant analysis'
p974
g2
sS'multiclass'
p975
g2
sS'particle swarm optimization (pso)'
p976
g2
sS'fuzzy rules'
p977
g2
sS'information storage and retrieval'
p978
g4
sS'mri'
p979
g6
sS'kernel machines'
p980
g2
sS'instance selection'
p981
g2
sS'games'
p982
g4
sS'genetic algorithm'
p983
g19
sS'models'
p984
g4
sS'time series forecasting'
p985
g2
sS'robustnes'
p986
g6
sS'multi-label classification'
p987
g2
sS'incremental learning'
p988
g19
sS'admet'
p989
g4
sS'prediction error'
p990
g2
sS'proteomic'
p991
g6
sS'hiv'
p992
g4
sS'structure'
p993
g10
sS'metric learning'
p994
g2
sS'multi-agent systems'
p995
g4
sS'supervised learning'
p996
g19
sS'machine learning approach'
p997
g2
sS'bci'
p998
g4
sS'algorithm'
p999
g6
sS'face detection'
p1000
g6
sS'hidden markov model (hmm)'
p1001
g2
sS'cloud computing'
p1002
g4
sS'high performance computing'
p1003
g4
sS'recommender system'
p1004
g6
sS'neural network ensemble'
p1005
g2
sS'diagnosis'
p1006
g4
sS'model evaluation'
p1007
g4
sS'kullback-leibler divergence'
p1008
g2
sS'lung cancer'
p1009
g4
sS'text analysis'
p1010
g4
sS'fuzzy set theory'
p1011
g2
s.